; Function Attrs: cold nounwind optsize uwtable
define internal noundef i32 @tqi_decode_init(ptr noundef captures(none) initializes((100, 108), (136, 140)) %0) #0 {
  %2 = getelementptr inbounds nuw i8, ptr %0, i64 32
  %3 = load ptr, ptr %2, align 8, !tbaa !4
  %4 = getelementptr inbounds nuw i8, ptr %3, i64 40
  tail call void @ff_blockdsp_init(ptr noundef nonnull %4) #4
  %5 = getelementptr inbounds nuw i8, ptr %3, i64 72
  tail call void @ff_bswapdsp_init(ptr noundef nonnull %5) #4
  %6 = getelementptr inbounds nuw i8, ptr %0, i64 100
  store i32 15, ptr %6, align 4, !tbaa !27
  %.sroa.2.0..sroa_idx = getelementptr inbounds nuw i8, ptr %0, i64 104
  store i32 1, ptr %.sroa.2.0..sroa_idx, align 4, !tbaa !27
  %7 = getelementptr inbounds nuw i8, ptr %0, i64 136
  store i32 0, ptr %7, align 8, !tbaa !28
  tail call void @ff_mpeg12_init_vlcs() #4
  ret i32 0
}